target datalayout = "e-m:e-p270:32:32-p271:32:32-p272:64:64-i64:64-i128:128-f80:128-n8:16:32:64-S128"
target triple = "x86_64-pc-linux-gnu"

%struct.ECPGtype = type { i32, ptr, ptr, ptr, %union.anon, i32 }
%union.anon = type { ptr }

; Function Attrs: nounwind uwtable
define dso_local ptr @ECPGmake_simple_type(i32 noundef %0, ptr noundef %1, i32 noundef %2) #0 {
  %4 = alloca i32, align 4
  %5 = alloca ptr, align 8
  %6 = alloca i32, align 4
  %7 = alloca ptr, align 8
  store i32 %0, ptr %4, align 4
  store ptr %1, ptr %5, align 8
  store i32 %2, ptr %6, align 4
  call void @llvm.lifetime.start.p0(i64 8, ptr %7) #7
  %8 = call ptr @mm_alloc(i64 noundef 48)
  store ptr %8, ptr %7, align 8
  %9 = load i32, ptr %4, align 4
  %10 = load ptr, ptr %7, align 8
  %11 = getelementptr inbounds nuw %struct.ECPGtype, ptr %10, i32 0, i32 0
  store i32 %9, ptr %11, align 8
  %12 = load ptr, ptr %7, align 8
  %13 = getelementptr inbounds nuw %struct.ECPGtype, ptr %12, i32 0, i32 1
  store ptr null, ptr %13, align 8
  %14 = load ptr, ptr %5, align 8
  %15 = call ptr @mm_strdup(ptr noundef %14)
  %16 = load ptr, ptr %7, align 8
  %17 = getelementptr inbounds nuw %struct.ECPGtype, ptr %16, i32 0, i32 2
  store ptr %15, ptr %17, align 8
  %18 = load ptr, ptr %7, align 8
  %19 = getelementptr inbounds nuw %struct.ECPGtype, ptr %18, i32 0, i32 4
  store ptr null, ptr %19, align 8
  %20 = load ptr, ptr %7, align 8
  %21 = getelementptr inbounds nuw %struct.ECPGtype, ptr %20, i32 0, i32 3
  store ptr null, ptr %21, align 8
  %22 = load i32, ptr %6, align 4
  %23 = load ptr, ptr %7, align 8
  %24 = getelementptr inbounds nuw %struct.ECPGtype, ptr %23, i32 0, i32 5
  store i32 %22, ptr %24, align 8
  %25 = load ptr, ptr %7, align 8
  call void @llvm.lifetime.end.p0(i64 8, ptr %7) #7
  ret ptr %25
}

; Function Attrs: nounwind uwtable
define dso_local ptr @ECPGmake_array_type(ptr noundef %0, ptr noundef %1) #0 {
  %3 = alloca ptr, align 8
  %4 = alloca ptr, align 8
  %5 = alloca ptr, align 8
  store ptr %0, ptr %3, align 8
  store ptr %1, ptr %4, align 8
  call void @llvm.lifetime.start.p0(i64 8, ptr %5) #7
  %6 = load ptr, ptr %4, align 8
  %7 = call ptr @ECPGmake_simple_type(i32 noundef 21, ptr noundef %6, i32 noundef 0)
  store ptr %7, ptr %5, align 8
  %8 = load ptr, ptr %3, align 8
  %9 = load ptr, ptr %5, align 8
  %10 = getelementptr inbounds nuw %struct.ECPGtype, ptr %9, i32 0, i32 4
  store ptr %8, ptr %10, align 8
  %11 = load ptr, ptr %5, align 8
  call void @llvm.lifetime.end.p0(i64 8, ptr %5) #7
  ret ptr %11
}