; Function Attrs: nounwind uwtable
define dso_local noundef ptr @ECPGmake_array_type(ptr noundef %0, ptr noundef %1) local_unnamed_addr #0 {
  %3 = tail call ptr @mm_alloc(i64 noundef 48) #7
  store i32 21, ptr %3, align 8
  %4 = getelementptr inbounds nuw i8, ptr %3, i64 8
  store ptr null, ptr %4, align 8
  %5 = tail call ptr @mm_strdup(ptr noundef %1) #7
  %6 = getelementptr inbounds nuw i8, ptr %3, i64 16
  store ptr %5, ptr %6, align 8
  %7 = getelementptr inbounds nuw i8, ptr %3, i64 24
  %8 = getelementptr inbounds nuw i8, ptr %3, i64 32
  tail call void @llvm.memset.p0.i64(ptr noundef nonnull align 8 dereferenceable(20) %7, i8 0, i64 20, i1 false)
  store ptr %0, ptr %8, align 8
  ret ptr %3
}